; ModuleID = '54/268.c'
source_filename = "54/268.c"
target datalayout = "e-m:e-p270:32:32-p271:32:32-p272:64:64-i64:64-f80:128-n8:16:32:64-S128"
target triple = "x86_64-pc-linux-gnu"

@.str = private unnamed_addr constant [6 x i8] c"%d %d\00", align 1
@.str.1 = private unnamed_addr constant [3 x i8] c"%d\00", align 1

; Function Attrs: noinline nounwind uwtable
define dso_local i32 @main() #0 {
  %1 = alloca i32, align 4
  %2 = alloca i32, align 4
  %3 = alloca i32, align 4
  %4 = alloca i32, align 4
  %5 = alloca i32, align 4
  %6 = alloca i32, align 4
  %7 = alloca i32, align 4
  store i32 0, i32* %1, align 4
  store i32 1, i32* %7, align 4
  %8 = call i32 (i8*, ...) @__isoc99_scanf(i8* getelementptr inbounds ([6 x i8], [6 x i8]* @.str, i64 0, i64 0), i32* %4, i32* %3)
  %9 = load i32, i32* %4, align 4
  store i32 %9, i32* %6, align 4
  store i32 1, i32* %5, align 4
  br label %10

10:                                               ; preds = %18, %0
  %11 = load i32, i32* %5, align 4
  %12 = load i32, i32* %4, align 4
  %13 = icmp sle i32 %11, %12
  br i1 %13, label %14, label %21

14:                                               ; preds = %10
  %15 = load i32, i32* %7, align 4
  %16 = load i32, i32* %4, align 4
  %17 = mul nsw i32 %15, %16
  store i32 %17, i32* %7, align 4
  br label %18

18:                                               ; preds = %14
  %19 = load i32, i32* %5, align 4
  %20 = add nsw i32 %19, 1
  store i32 %20, i32* %5, align 4
  br label %10

21:                                               ; preds = %10
  %22 = load i32, i32* %7, align 4
  %23 = load i32, i32* %6, align 4
  %24 = load i32, i32* %3, align 4
  %25 = mul nsw i32 %23, %24
  %26 = sub nsw i32 %22, %25
  %27 = load i32, i32* %3, align 4
  %28 = add nsw i32 %26, %27
  store i32 %28, i32* %2, align 4
  %29 = load i32, i32* %2, align 4
  %30 = call i32 (i8*, ...) @printf(i8* getelementptr inbounds ([3 x i8], [3 x i8]* @.str.1, i64 0, i64 0), i32 %29)
  %31 = load i32, i32* %1, align 4
  ret i32 %31
}

declare dso_local i32 @__isoc99_scanf(i8*, ...) #1

declare dso_local i32 @printf(i8*, ...) #1


!llvm.module.flags = !{!0}
!llvm.ident = !{!1}

!0 = !{i32 1, !"wchar_size", i32 4}
!1 = !{!"clang version 10.0.0-4ubuntu1 "}
